; Function Attrs: mustprogress uwtable
define void @_ZN6LibRaw15ciff_block_1030Ev(ptr noundef nonnull align 8 dereferenceable(767680) %0) local_unnamed_addr #0 align 2 {
  %2 = tail call noundef zeroext i16 @_ZN6LibRaw4get2Ev(ptr noundef nonnull align 8 dereferenceable(767680) %0)
  %3 = tail call noundef i32 @_ZN6LibRaw4get4Ev(ptr noundef nonnull align 8 dereferenceable(767680) %0)
  %.not = icmp eq i32 %3, 524296
  br i1 %.not, label %4, label %.loopexit

4:                                                ; preds = %1
  %5 = tail call noundef i32 @_ZN6LibRaw4get4Ev(ptr noundef nonnull align 8 dereferenceable(767680) %0)
  %.not26 = icmp eq i32 %5, 0
  br i1 %.not26, label %.loopexit, label %6

6:                                                ; preds = %4
  %7 = tail call noundef zeroext i16 @_ZN6LibRaw4get2Ev(ptr noundef nonnull align 8 dereferenceable(767680) %0)
  %8 = zext i16 %7 to i32
  switch i16 %7, label %.loopexit [
    i16 12, label %9
    i16 10, label %9
  ]

9:                                                ; preds = %6, %6
  %10 = shl nsw i32 -1, %8
  %11 = xor i32 %10, -1
  %12 = zext nneg i32 %11 to i64
  %13 = getelementptr inbounds nuw i8, ptr %0, i64 153048
  br label %.preheader

.preheader:                                       ; preds = %9, %35
  %indvars.iv36 = phi i64 [ 0, %9 ], [ %indvars.iv.next37, %35 ]
  %.034 = phi i64 [ 0, %9 ], [ %.2, %35 ]
  %.01833 = phi i32 [ 0, %9 ], [ %29, %35 ]
  %.02331 = phi i32 [ 0, %9 ], [ %.225, %35 ]
  br label %14

14:                                               ; preds = %.preheader, %28
  %indvars.iv = phi i64 [ 0, %.preheader ], [ %indvars.iv.next, %28 ]
  %.130 = phi i64 [ %.034, %.preheader ], [ %.2, %28 ]
  %.11929 = phi i32 [ %.01833, %.preheader ], [ %29, %28 ]
  %.12427 = phi i32 [ %.02331, %.preheader ], [ %.225, %28 ]
  %15 = icmp slt i32 %.11929, %8
  br i1 %15, label %16, label %28

16:                                               ; preds = %14
  %17 = shl i64 %.130, 16
  %18 = tail call noundef zeroext i16 @_ZN6LibRaw4get2Ev(ptr noundef nonnull align 8 dereferenceable(767680) %0)
  %19 = add nsw i32 %.12427, 1
  %20 = and i32 %.12427, 1
  %21 = zext nneg i32 %20 to i64
  %22 = getelementptr inbounds nuw [2 x i16], ptr @_ZZN6LibRaw15ciff_block_1030EvE3key, i64 0, i64 %21
  %23 = load i16, ptr %22, align 2, !tbaa !6
  %24 = xor i16 %23, %18
  %25 = zext i16 %24 to i64
  %26 = or disjoint i64 %17, %25
  %27 = add nsw i32 %.11929, 16
  br label %28

28:                                               ; preds = %16, %14
  %.225 = phi i32 [ %19, %16 ], [ %.12427, %14 ]
  %.220 = phi i32 [ %27, %16 ], [ %.11929, %14 ]
  %.2 = phi i64 [ %26, %16 ], [ %.130, %14 ]
  %29 = sub nsw i32 %.220, %8
  %30 = zext nneg i32 %29 to i64
  %31 = lshr i64 %.2, %30
  %32 = and i64 %31, %12
  %33 = trunc nuw i64 %32 to i16
  %34 = getelementptr inbounds nuw [8 x [8 x i16]], ptr %13, i64 0, i64 %indvars.iv36, i64 %indvars.iv
  store i16 %33, ptr %34, align 2, !tbaa !6
  %indvars.iv.next = add nuw nsw i64 %indvars.iv, 1
  %exitcond.not = icmp eq i64 %indvars.iv.next, 8
  br i1 %exitcond.not, label %35, label %14, !llvm.loop !10

35:                                               ; preds = %28
  %indvars.iv.next37 = add nuw nsw i64 %indvars.iv36, 1
  %exitcond39.not = icmp eq i64 %indvars.iv.next37, 8
  br i1 %exitcond39.not, label %.loopexit, label %.preheader, !llvm.loop !12

.loopexit:                                        ; preds = %35, %6, %1, %4
  ret void
}